target datalayout = "e-m:e-p270:32:32-p271:32:32-p272:64:64-i64:64-i128:128-f80:128-n8:16:32:64-S128"
target triple = "x86_64-pc-linux-gnu"

%struct.flock = type { i16, i16, i64, i64, i32 }

@lock_file = external global i32, align 4
@.str.25 = private unnamed_addr constant [22 x i8] c"UpdateC(+1):  %s (%d)\00", align 1

; Function Attrs: inlinehint nounwind uwtable
define internal i32 @accel_activate_add() #8 {
  %1 = alloca i32, align 4
  %2 = alloca %struct.flock, align 8
  %3 = alloca i32, align 4
  call void @llvm.lifetime.start.p0(i64 32, ptr %2) #19
  %4 = getelementptr inbounds nuw %struct.flock, ptr %2, i32 0, i32 0
  store i16 0, ptr %4, align 8, !tbaa !195
  %5 = getelementptr inbounds nuw %struct.flock, ptr %2, i32 0, i32 1
  store i16 0, ptr %5, align 2, !tbaa !197
  %6 = getelementptr inbounds nuw %struct.flock, ptr %2, i32 0, i32 2
  store i64 1, ptr %6, align 8, !tbaa !198
  %7 = getelementptr inbounds nuw %struct.flock, ptr %2, i32 0, i32 3
  store i64 1, ptr %7, align 8, !tbaa !199
  %8 = load i32, ptr @lock_file, align 4, !tbaa !4
  %9 = call i32 (i32, i32, ...) @fcntl(i32 noundef %8, i32 noundef 6, ptr noundef %2)
  %10 = icmp eq i32 %9, -1
  br i1 %10, label %11, label %17

11:                                               ; preds = %0
  %12 = call ptr @__errno_location() #21
  %13 = load i32, ptr %12, align 4, !tbaa !4
  %14 = call ptr @strerror(i32 noundef %13) #19
  %15 = call ptr @__errno_location() #21
  %16 = load i32, ptr %15, align 4, !tbaa !4
  call void (i32, ptr, ...) @zend_accel_error(i32 noundef 4, ptr noundef @.str.25, ptr noundef %14, i32 noundef %16)
  store i32 -1, ptr %1, align 4
  store i32 1, ptr %3, align 4
  br label %18

17:                                               ; preds = %0
  store i32 0, ptr %1, align 4
  store i32 1, ptr %3, align 4
  br label %18

18:                                               ; preds = %17, %11
  call void @llvm.lifetime.end.p0(i64 32, ptr %2) #19
  %19 = load i32, ptr %1, align 4
  ret i32 %19
}