; Function Attrs: inlinehint nounwind uwtable
define internal fastcc range(i32 -1, 1) i32 @accel_activate_add() unnamed_addr #7 {
  %1 = alloca %struct.flock, align 8
  call void @llvm.lifetime.start.p0(i64 32, ptr nonnull %1) #26
  store i16 0, ptr %1, align 8, !tbaa !161
  %2 = getelementptr inbounds nuw i8, ptr %1, i64 2
  store i16 0, ptr %2, align 2, !tbaa !163
  %3 = getelementptr inbounds nuw i8, ptr %1, i64 8
  store i64 1, ptr %3, align 8, !tbaa !164
  %4 = getelementptr inbounds nuw i8, ptr %1, i64 16
  store i64 1, ptr %4, align 8, !tbaa !165
  %5 = load i32, ptr @lock_file, align 4, !tbaa !59
  %6 = call i32 (i32, i32, ...) @fcntl(i32 noundef %5, i32 noundef 6, ptr noundef nonnull %1) #26
  %7 = icmp eq i32 %6, -1
  br i1 %7, label %8, label %13

8:                                                ; preds = %0
  %9 = tail call ptr @__errno_location() #28
  %10 = load i32, ptr %9, align 4, !tbaa !59
  %11 = call ptr @strerror(i32 noundef %10) #26
  %12 = load i32, ptr %9, align 4, !tbaa !59
  call void (i32, ptr, ...) @zend_accel_error(i32 noundef 4, ptr noundef nonnull @.str.25, ptr noundef %11, i32 noundef %12) #26
  br label %13

13:                                               ; preds = %0, %8
  %.0 = phi i32 [ -1, %8 ], [ 0, %0 ]
  call void @llvm.lifetime.end.p0(i64 32, ptr nonnull %1) #26
  ret i32 %.0
}